; Function Attrs: nounwind uwtable
define dso_local ptr @xstrdup_tolower(ptr noundef readonly captures(none) %0) local_unnamed_addr #3 {
  %2 = tail call i64 @strlen(ptr noundef nonnull dereferenceable(1) %0) #26
  %3 = tail call ptr @xmallocz(i64 noundef %2) #25
  %.not = icmp eq i64 %2, 0
  br i1 %.not, label %._crit_edge, label %.lr.ph

.lr.ph:                                           ; preds = %1, %.lr.ph
  %.010 = phi i64 [ %12, %.lr.ph ], [ 0, %1 ]
  %4 = getelementptr inbounds nuw i8, ptr %0, i64 %.010
  %5 = load i8, ptr %4, align 1, !tbaa !4
  %6 = zext i8 %5 to i64
  %7 = getelementptr inbounds nuw [256 x i8], ptr @sane_ctype, i64 0, i64 %6
  %8 = load i8, ptr %7, align 1, !tbaa !4
  %9 = shl i8 %8, 3
  %10 = and i8 %9, 32
  %.0.i9 = or i8 %10, %5
  %11 = getelementptr inbounds nuw i8, ptr %3, i64 %.010
  store i8 %.0.i9, ptr %11, align 1, !tbaa !4
  %12 = add nuw i64 %.010, 1
  %exitcond.not = icmp eq i64 %12, %2
  br i1 %exitcond.not, label %._crit_edge, label %.lr.ph, !llvm.loop !45

._crit_edge:                                      ; preds = %.lr.ph, %1
  ret ptr %3
}